target datalayout = "e-m:e-p270:32:32-p271:32:32-p272:64:64-i64:64-i128:128-f80:128-n8:16:32:64-S128"
target triple = "x86_64-pc-linux-gnu"

%struct.pg_tm = type { i32, i32, i32, i32, i32, i32, i32, i32, i32, i64, ptr }

@.str = private unnamed_addr constant [23 x i8] c"timestamp out of range\00", align 1
@.str.1 = private unnamed_addr constant [7 x i8] c"json.c\00", align 1
@__func__.JsonEncodeDateTime = private unnamed_addr constant [19 x i8] c"JsonEncodeDateTime\00", align 1
@.str.2 = private unnamed_addr constant [41 x i8] c"unknown jsonb value datetime type oid %u\00", align 1

; Function Attrs: inlinehint nounwind uwtable
define internal ptr @DatumGetPointer(i64 noundef %0) #2 {
  %2 = alloca i64, align 8
  store i64 %0, ptr %2, align 8
  %3 = load i64, ptr %2, align 8
  %4 = inttoptr i64 %3 to ptr
  ret ptr %4
}

; Function Attrs: inlinehint nounwind uwtable
define internal i64 @DatumGetInt64(i64 noundef %0) #2 {
  %2 = alloca i64, align 8
  store i64 %0, ptr %2, align 8
  %3 = load i64, ptr %2, align 8
  ret i64 %3
}

; Function Attrs: inlinehint nounwind uwtable
define internal i32 @DatumGetInt32(i64 noundef %0) #2 {
  %2 = alloca i64, align 8
  store i64 %0, ptr %2, align 8
  %3 = load i64, ptr %2, align 8
  %4 = trunc i64 %3 to i32
  ret i32 %4
}

; Function Attrs: inlinehint nounwind uwtable
define internal i64 @DatumGetTimestampTz(i64 noundef %0) #2 {
  %2 = alloca i64, align 8
  store i64 %0, ptr %2, align 8
  %3 = load i64, ptr %2, align 8
  %4 = call i64 @DatumGetInt64(i64 noundef %3)
  ret i64 %4
}

; Function Attrs: inlinehint nounwind uwtable
define internal i64 @DatumGetTimestamp(i64 noundef %0) #2 {
  %2 = alloca i64, align 8
  store i64 %0, ptr %2, align 8
  %3 = load i64, ptr %2, align 8
  %4 = call i64 @DatumGetInt64(i64 noundef %3)
  ret i64 %4
}

; Function Attrs: inlinehint nounwind uwtable
define internal ptr @DatumGetTimeTzADTP(i64 noundef %0) #2 {
  %2 = alloca i64, align 8
  store i64 %0, ptr %2, align 8
  %3 = load i64, ptr %2, align 8
  %4 = call ptr @DatumGetPointer(i64 noundef %3)
  ret ptr %4
}

; Function Attrs: inlinehint nounwind uwtable
define internal i64 @DatumGetTimeADT(i64 noundef %0) #2 {
  %2 = alloca i64, align 8
  store i64 %0, ptr %2, align 8
  %3 = load i64, ptr %2, align 8
  %4 = call i64 @DatumGetInt64(i64 noundef %3)
  ret i64 %4
}

; Function Attrs: inlinehint nounwind uwtable
define internal i32 @DatumGetDateADT(i64 noundef %0) #2 {
  %2 = alloca i64, align 8
  store i64 %0, ptr %2, align 8
  %3 = load i64, ptr %2, align 8
  %4 = call i32 @DatumGetInt32(i64 noundef %3)
  ret i32 %4
}

; Function Attrs: nounwind uwtable
define dso_local ptr @JsonEncodeDateTime(ptr noundef %0, i64 noundef %1, i32 noundef %2, ptr noundef %3) #0 {
  %5 = alloca ptr, align 8
  %6 = alloca ptr, align 8
  %7 = alloca i64, align 8
  %8 = alloca i32, align 4
  %9 = alloca ptr, align 8
  %10 = alloca i32, align 4
  %11 = alloca %struct.pg_tm, align 8
  %12 = alloca i64, align 8
  %13 = alloca %struct.pg_tm, align 8
  %14 = alloca ptr, align 8
  %15 = alloca i32, align 4
  %16 = alloca ptr, align 8
  %17 = alloca %struct.pg_tm, align 8
  %18 = alloca ptr, align 8
  %19 = alloca i32, align 4
  %20 = alloca i32, align 4
  %21 = alloca i64, align 8
  %22 = alloca %struct.pg_tm, align 8
  %23 = alloca i32, align 4
  %24 = alloca i64, align 8
  %25 = alloca %struct.pg_tm, align 8
  %26 = alloca i32, align 4
  %27 = alloca i32, align 4
  %28 = alloca ptr, align 8
  store ptr %0, ptr %6, align 8
  store i64 %1, ptr %7, align 8
  store i32 %2, ptr %8, align 4
  store ptr %3, ptr %9, align 8
  %29 = load ptr, ptr %6, align 8
  %30 = icmp ne ptr %29, null
  br i1 %30, label %33, label %31

31:                                               ; preds = %4
  %32 = call ptr @palloc(i64 noundef 129)
  store ptr %32, ptr %6, align 8
  br label %33

33:                                               ; preds = %31, %4
  %34 = load i32, ptr %8, align 4
  switch i32 %34, label %167 [
    i32 1082, label %35
    i32 1083, label %54
    i32 1266, label %63
    i32 1114, label %73
    i32 1184, label %105
  ]

35:                                               ; preds = %33
  call void @llvm.lifetime.start.p0(i64 4, ptr %10) #14
  call void @llvm.lifetime.start.p0(i64 56, ptr %11) #14
  %36 = load i64, ptr %7, align 8
  %37 = call i32 @DatumGetDateADT(i64 noundef %36)
  store i32 %37, ptr %10, align 4
  %38 = load i32, ptr %10, align 4
  %39 = icmp eq i32 %38, -2147483648
  br i1 %39, label %43, label %40

40:                                               ; preds = %35
  %41 = load i32, ptr %10, align 4
  %42 = icmp eq i32 %41, 2147483647
  br i1 %42, label %43, label %46

43:                                               ; preds = %40, %35
  %44 = load i32, ptr %10, align 4
  %45 = load ptr, ptr %6, align 8
  call void @EncodeSpecialDate(i32 noundef %44, ptr noundef %45)
  br label %53

46:                                               ; preds = %40
  %47 = load i32, ptr %10, align 4
  %48 = add i32 %47, 2451545
  %49 = getelementptr inbounds nuw %struct.pg_tm, ptr %11, i32 0, i32 5
  %50 = getelementptr inbounds nuw %struct.pg_tm, ptr %11, i32 0, i32 4
  %51 = getelementptr inbounds nuw %struct.pg_tm, ptr %11, i32 0, i32 3
  call void @j2date(i32 noundef %48, ptr noundef %49, ptr noundef %50, ptr noundef %51)
  %52 = load ptr, ptr %6, align 8
  call void @EncodeDateOnly(ptr noundef %11, i32 noundef 4, ptr noundef %52)
  br label %53

53:                                               ; preds = %46, %43
  call void @llvm.lifetime.end.p0(i64 56, ptr %11) #14
  call void @llvm.lifetime.end.p0(i64 4, ptr %10) #14
  br label %178

54:                                               ; preds = %33
  call void @llvm.lifetime.start.p0(i64 8, ptr %12) #14
  %55 = load i64, ptr %7, align 8
  %56 = call i64 @DatumGetTimeADT(i64 noundef %55)
  store i64 %56, ptr %12, align 8
  call void @llvm.lifetime.start.p0(i64 56, ptr %13) #14
  call void @llvm.lifetime.start.p0(i64 8, ptr %14) #14
  store ptr %13, ptr %14, align 8
  call void @llvm.lifetime.start.p0(i64 4, ptr %15) #14
  %57 = load i64, ptr %12, align 8
  %58 = load ptr, ptr %14, align 8
  %59 = call i32 @time2tm(i64 noundef %57, ptr noundef %58, ptr noundef %15)
  %60 = load ptr, ptr %14, align 8
  %61 = load i32, ptr %15, align 4
  %62 = load ptr, ptr %6, align 8
  call void @EncodeTimeOnly(ptr noundef %60, i32 noundef %61, i1 noundef zeroext false, i32 noundef 0, i32 noundef 4, ptr noundef %62)
  call void @llvm.lifetime.end.p0(i64 4, ptr %15) #14
  call void @llvm.lifetime.end.p0(i64 8, ptr %14) #14
  call void @llvm.lifetime.end.p0(i64 56, ptr %13) #14
  call void @llvm.lifetime.end.p0(i64 8, ptr %12) #14
  br label %178

63:                                               ; preds = %33
  call void @llvm.lifetime.start.p0(i64 8, ptr %16) #14
  %64 = load i64, ptr %7, align 8
  %65 = call ptr @DatumGetTimeTzADTP(i64 noundef %64)
  store ptr %65, ptr %16, align 8
  call void @llvm.lifetime.start.p0(i64 56, ptr %17) #14
  call void @llvm.lifetime.start.p0(i64 8, ptr %18) #14
  store ptr %17, ptr %18, align 8
  call void @llvm.lifetime.start.p0(i64 4, ptr %19) #14
  call void @llvm.lifetime.start.p0(i64 4, ptr %20) #14
  %66 = load ptr, ptr %16, align 8
  %67 = load ptr, ptr %18, align 8
  %68 = call i32 @timetz2tm(ptr noundef %66, ptr noundef %67, ptr noundef %19, ptr noundef %20)
  %69 = load ptr, ptr %18, align 8
  %70 = load i32, ptr %19, align 4
  %71 = load i32, ptr %20, align 4
  %72 = load ptr, ptr %6, align 8
  call void @EncodeTimeOnly(ptr noundef %69, i32 noundef %70, i1 noundef zeroext true, i32 noundef %71, i32 noundef 4, ptr noundef %72)
  call void @llvm.lifetime.end.p0(i64 4, ptr %20) #14
  call void @llvm.lifetime.end.p0(i64 4, ptr %19) #14
  call void @llvm.lifetime.end.p0(i64 8, ptr %18) #14
  call void @llvm.lifetime.end.p0(i64 56, ptr %17) #14
  call void @llvm.lifetime.end.p0(i64 8, ptr %16) #14
  br label %178

73:                                               ; preds = %33
  call void @llvm.lifetime.start.p0(i64 8, ptr %21) #14
  call void @llvm.lifetime.start.p0(i64 56, ptr %22) #14
  call void @llvm.lifetime.start.p0(i64 4, ptr %23) #14
  %74 = load i64, ptr %7, align 8
  %75 = call i64 @DatumGetTimestamp(i64 noundef %74)
  store i64 %75, ptr %21, align 8
  %76 = load i64, ptr %21, align 8
  %77 = icmp eq i64 %76, -9223372036854775808
  br i1 %77, label %81, label %78

78:                                               ; preds = %73
  %79 = load i64, ptr %21, align 8
  %80 = icmp eq i64 %79, 9223372036854775807
  br i1 %80, label %81, label %84

81:                                               ; preds = %78, %73
  %82 = load i64, ptr %21, align 8
  %83 = load ptr, ptr %6, align 8
  call void @EncodeSpecialTimestamp(i64 noundef %82, ptr noundef %83)
  br label %104

84:                                               ; preds = %78
  %85 = load i64, ptr %21, align 8
  %86 = call i32 @timestamp2tm(i64 noundef %85, ptr noundef null, ptr noundef %22, ptr noundef %23, ptr noundef null, ptr noundef null)
  %87 = icmp eq i32 %86, 0
  br i1 %87, label %88, label %91

88:                                               ; preds = %84
  %89 = load i32, ptr %23, align 4
  %90 = load ptr, ptr %6, align 8
  call void @EncodeDateTime(ptr noundef %22, i32 noundef %89, i1 noundef zeroext false, i32 noundef 0, ptr noundef null, i32 noundef 4, ptr noundef %90)
  br label %103

91:                                               ; preds = %84
  br label %92

92:                                               ; preds = %91
  br i1 true, label %93, label %95

93:                                               ; preds = %92
  %94 = call zeroext i1 @errstart_cold(i32 noundef 21, ptr noundef null) #15
  br i1 %94, label %97, label %100

95:                                               ; preds = %92
  %96 = call zeroext i1 @errstart(i32 noundef 21, ptr noundef null)
  br i1 %96, label %97, label %100

97:                                               ; preds = %95, %93
  %98 = call i32 @errcode(i32 noundef 134217858)
  %99 = call i32 (ptr, ...) @errmsg(ptr noundef @.str)
  call void @errfinish(ptr noundef @.str.1, i32 noundef 375, ptr noundef @__func__.JsonEncodeDateTime)
  br label %100

100:                                              ; preds = %97, %95, %93
  unreachable

101:                                              ; No predecessors!
  br label %102

102:                                              ; preds = %101
  br label %103

103:                                              ; preds = %102, %88
  br label %104

104:                                              ; preds = %103, %81
  call void @llvm.lifetime.end.p0(i64 4, ptr %23) #14
  call void @llvm.lifetime.end.p0(i64 56, ptr %22) #14
  call void @llvm.lifetime.end.p0(i64 8, ptr %21) #14
  br label %178

105:                                              ; preds = %33
  call void @llvm.lifetime.start.p0(i64 8, ptr %24) #14
  call void @llvm.lifetime.start.p0(i64 56, ptr %25) #14
  call void @llvm.lifetime.start.p0(i64 4, ptr %26) #14
  call void @llvm.lifetime.start.p0(i64 4, ptr %27) #14
  call void @llvm.lifetime.start.p0(i64 8, ptr %28) #14
  store ptr null, ptr %28, align 8
  %106 = load i64, ptr %7, align 8
  %107 = call i64 @DatumGetTimestampTz(i64 noundef %106)
  store i64 %107, ptr %24, align 8
  %108 = load ptr, ptr %9, align 8
  %109 = icmp ne ptr %108, null
  br i1 %109, label %110, label %118

110:                                              ; preds = %105
  %111 = load ptr, ptr %9, align 8
  %112 = load i32, ptr %111, align 4
  store i32 %112, ptr %26, align 4
  %113 = load i32, ptr %26, align 4
  %114 = sext i32 %113 to i64
  %115 = mul i64 %114, 1000000
  %116 = load i64, ptr %24, align 8
  %117 = sub i64 %116, %115
  store i64 %117, ptr %24, align 8
  br label %118

118:                                              ; preds = %110, %105
  %119 = load i64, ptr %24, align 8
  %120 = icmp eq i64 %119, -9223372036854775808
  br i1 %120, label %124, label %121

121:                                              ; preds = %118
  %122 = load i64, ptr %24, align 8
  %123 = icmp eq i64 %122, 9223372036854775807
  br i1 %123, label %124, label %127

124:                                              ; preds = %121, %118
  %125 = load i64, ptr %24, align 8
  %126 = load ptr, ptr %6, align 8
  call void @EncodeSpecialTimestamp(i64 noundef %125, ptr noundef %126)
  br label %166

127:                                              ; preds = %121
  %128 = load i64, ptr %24, align 8
  %129 = load ptr, ptr %9, align 8
  %130 = icmp ne ptr %129, null
  br i1 %130, label %131, label %132

131:                                              ; preds = %127
  br label %133

132:                                              ; preds = %127
  br label %133

133:                                              ; preds = %132, %131
  %134 = phi ptr [ null, %131 ], [ %26, %132 ]
  %135 = load ptr, ptr %9, align 8
  %136 = icmp ne ptr %135, null
  br i1 %136, label %137, label %138

137:                                              ; preds = %133
  br label %139

138:                                              ; preds = %133
  br label %139

139:                                              ; preds = %138, %137
  %140 = phi ptr [ null, %137 ], [ %28, %138 ]
  %141 = call i32 @timestamp2tm(i64 noundef %128, ptr noundef %134, ptr noundef %25, ptr noundef %27, ptr noundef %140, ptr noundef null)
  %142 = icmp eq i32 %141, 0
  br i1 %142, label %143, label %153

143:                                              ; preds = %139
  %144 = load ptr, ptr %9, align 8
  %145 = icmp ne ptr %144, null
  br i1 %145, label %146, label %148

146:                                              ; preds = %143
  %147 = getelementptr inbounds nuw %struct.pg_tm, ptr %25, i32 0, i32 8
  store i32 1, ptr %147, align 8
  br label %148

148:                                              ; preds = %146, %143
  %149 = load i32, ptr %27, align 4
  %150 = load i32, ptr %26, align 4
  %151 = load ptr, ptr %28, align 8
  %152 = load ptr, ptr %6, align 8
  call void @EncodeDateTime(ptr noundef %25, i32 noundef %149, i1 noundef zeroext true, i32 noundef %150, ptr noundef %151, i32 noundef 4, ptr noundef %152)
  br label %165

153:                                              ; preds = %139
  br label %154

154:                                              ; preds = %153
  br i1 true, label %155, label %157

155:                                              ; preds = %154
  %156 = call zeroext i1 @errstart_cold(i32 noundef 21, ptr noundef null) #15
  br i1 %156, label %159, label %162

157:                                              ; preds = %154
  %158 = call zeroext i1 @errstart(i32 noundef 21, ptr noundef null)
  br i1 %158, label %159, label %162

159:                                              ; preds = %157, %155
  %160 = call i32 @errcode(i32 noundef 134217858)
  %161 = call i32 (ptr, ...) @errmsg(ptr noundef @.str)
  call void @errfinish(ptr noundef @.str.1, i32 noundef 414, ptr noundef @__func__.JsonEncodeDateTime)
  br label %162

162:                                              ; preds = %159, %157, %155
  unreachable

163:                                              ; No predecessors!
  br label %164

164:                                              ; preds = %163
  br label %165

165:                                              ; preds = %164, %148
  br label %166

166:                                              ; preds = %165, %124
  call void @llvm.lifetime.end.p0(i64 8, ptr %28) #14
  call void @llvm.lifetime.end.p0(i64 4, ptr %27) #14
  call void @llvm.lifetime.end.p0(i64 4, ptr %26) #14
  call void @llvm.lifetime.end.p0(i64 56, ptr %25) #14
  call void @llvm.lifetime.end.p0(i64 8, ptr %24) #14
  br label %178

167:                                              ; preds = %33
  br label %168

168:                                              ; preds = %167
  br i1 true, label %169, label %171

169:                                              ; preds = %168
  %170 = call zeroext i1 @errstart_cold(i32 noundef 21, ptr noundef null) #15
  br i1 %170, label %173, label %176

171:                                              ; preds = %168
  %172 = call zeroext i1 @errstart(i32 noundef 21, ptr noundef null)
  br i1 %172, label %173, label %176

173:                                              ; preds = %171, %169
  %174 = load i32, ptr %8, align 4
  %175 = call i32 (ptr, ...) @errmsg_internal(ptr noundef @.str.2, i32 noundef %174)
  call void @errfinish(ptr noundef @.str.1, i32 noundef 418, ptr noundef @__func__.JsonEncodeDateTime)
  br label %176

176:                                              ; preds = %173, %171, %169
  unreachable

177:                                              ; No predecessors!
  store ptr null, ptr %5, align 8
  br label %180

178:                                              ; preds = %166, %104, %63, %54, %53
  %179 = load ptr, ptr %6, align 8
  store ptr %179, ptr %5, align 8
  br label %180

180:                                              ; preds = %178, %177
  %181 = load ptr, ptr %5, align 8
  ret ptr %181
}