; Function Attrs: nounwind uwtable
define dso_local ptr @JsonEncodeDateTime(ptr noundef %0, i64 noundef %1, i32 noundef %2, ptr noundef readonly captures(address_is_null) %3) local_unnamed_addr #0 {
  %5 = alloca %struct.pg_tm, align 8
  %6 = alloca %struct.pg_tm, align 8
  %7 = alloca i32, align 4
  %8 = alloca %struct.pg_tm, align 8
  %9 = alloca i32, align 4
  %10 = alloca i32, align 4
  %11 = alloca %struct.pg_tm, align 8
  %12 = alloca i32, align 4
  %13 = alloca %struct.pg_tm, align 8
  %14 = alloca i32, align 4
  %15 = alloca i32, align 4
  %16 = alloca ptr, align 8
  %.not = icmp eq ptr %0, null
  br i1 %.not, label %17, label %19

17:                                               ; preds = %4
  %18 = tail call ptr @palloc(i64 noundef 129) #10
  br label %19

19:                                               ; preds = %17, %4
  %.046 = phi ptr [ %0, %4 ], [ %18, %17 ]
  switch i32 %2, label %75 [
    i32 1082, label %20
    i32 1083, label %30
    i32 1266, label %33
    i32 1114, label %38
    i32 1184, label %51
  ]

20:                                               ; preds = %19
  call void @llvm.lifetime.start.p0(i64 56, ptr nonnull %5) #10
  %21 = trunc i64 %1 to i32
  %22 = add i32 %21, -2147483647
  %or.cond = icmp ult i32 %22, 2
  br i1 %or.cond, label %23, label %24

23:                                               ; preds = %20
  tail call void @EncodeSpecialDate(i32 noundef %21, ptr noundef %.046) #10
  br label %29

24:                                               ; preds = %20
  %25 = add i32 %21, 2451545
  %26 = getelementptr inbounds nuw i8, ptr %5, i64 20
  %27 = getelementptr inbounds nuw i8, ptr %5, i64 16
  %28 = getelementptr inbounds nuw i8, ptr %5, i64 12
  call void @j2date(i32 noundef %25, ptr noundef nonnull %26, ptr noundef nonnull %27, ptr noundef nonnull %28) #10
  call void @EncodeDateOnly(ptr noundef nonnull %5, i32 noundef 4, ptr noundef %.046) #10
  br label %29

29:                                               ; preds = %24, %23
  call void @llvm.lifetime.end.p0(i64 56, ptr nonnull %5) #10
  br label %78

30:                                               ; preds = %19
  call void @llvm.lifetime.start.p0(i64 56, ptr nonnull %6) #10
  call void @llvm.lifetime.start.p0(i64 4, ptr nonnull %7) #10
  %31 = call i32 @time2tm(i64 noundef %1, ptr noundef nonnull %6, ptr noundef nonnull %7) #10
  %32 = load i32, ptr %7, align 4
  call void @EncodeTimeOnly(ptr noundef nonnull %6, i32 noundef %32, i1 noundef zeroext false, i32 noundef 0, i32 noundef 4, ptr noundef %.046) #10
  call void @llvm.lifetime.end.p0(i64 4, ptr nonnull %7) #10
  call void @llvm.lifetime.end.p0(i64 56, ptr nonnull %6) #10
  br label %78

33:                                               ; preds = %19
  %34 = inttoptr i64 %1 to ptr
  call void @llvm.lifetime.start.p0(i64 56, ptr nonnull %8) #10
  call void @llvm.lifetime.start.p0(i64 4, ptr nonnull %9) #10
  call void @llvm.lifetime.start.p0(i64 4, ptr nonnull %10) #10
  %35 = call i32 @timetz2tm(ptr noundef %34, ptr noundef nonnull %8, ptr noundef nonnull %9, ptr noundef nonnull %10) #10
  %36 = load i32, ptr %9, align 4
  %37 = load i32, ptr %10, align 4
  call void @EncodeTimeOnly(ptr noundef nonnull %8, i32 noundef %36, i1 noundef zeroext true, i32 noundef %37, i32 noundef 4, ptr noundef %.046) #10
  call void @llvm.lifetime.end.p0(i64 4, ptr nonnull %10) #10
  call void @llvm.lifetime.end.p0(i64 4, ptr nonnull %9) #10
  call void @llvm.lifetime.end.p0(i64 56, ptr nonnull %8) #10
  br label %78

38:                                               ; preds = %19
  call void @llvm.lifetime.start.p0(i64 56, ptr nonnull %11) #10
  call void @llvm.lifetime.start.p0(i64 4, ptr nonnull %12) #10
  %39 = add i64 %1, -9223372036854775807
  %or.cond3 = icmp ult i64 %39, 2
  br i1 %or.cond3, label %40, label %41

40:                                               ; preds = %38
  tail call void @EncodeSpecialTimestamp(i64 noundef %1, ptr noundef %.046) #10
  br label %50

41:                                               ; preds = %38
  %42 = call i32 @timestamp2tm(i64 noundef %1, ptr noundef null, ptr noundef nonnull %11, ptr noundef nonnull %12, ptr noundef null, ptr noundef null) #10
  %43 = icmp eq i32 %42, 0
  br i1 %43, label %44, label %46

44:                                               ; preds = %41
  %45 = load i32, ptr %12, align 4
  call void @EncodeDateTime(ptr noundef nonnull %11, i32 noundef %45, i1 noundef zeroext false, i32 noundef 0, ptr noundef null, i32 noundef 4, ptr noundef %.046) #10
  br label %50

46:                                               ; preds = %41
  %47 = call zeroext i1 @errstart_cold(i32 noundef 21, ptr noundef null) #11
  call void @llvm.assume(i1 %47)
  %48 = call i32 @errcode(i32 noundef 134217858) #10
  %49 = call i32 (ptr, ...) @errmsg(ptr noundef nonnull @.str) #10
  call void @errfinish(ptr noundef nonnull @.str.1, i32 noundef 375, ptr noundef nonnull @__func__.JsonEncodeDateTime) #10
  unreachable

50:                                               ; preds = %44, %40
  call void @llvm.lifetime.end.p0(i64 4, ptr nonnull %12) #10
  call void @llvm.lifetime.end.p0(i64 56, ptr nonnull %11) #10
  br label %78

51:                                               ; preds = %19
  call void @llvm.lifetime.start.p0(i64 56, ptr nonnull %13) #10
  call void @llvm.lifetime.start.p0(i64 4, ptr nonnull %14) #10
  call void @llvm.lifetime.start.p0(i64 4, ptr nonnull %15) #10
  call void @llvm.lifetime.start.p0(i64 8, ptr nonnull %16) #10
  store ptr null, ptr %16, align 8
  %.not51 = icmp eq ptr %3, null
  br i1 %.not51, label %56, label %52

52:                                               ; preds = %51
  %53 = load i32, ptr %3, align 4
  store i32 %53, ptr %14, align 4
  %54 = sext i32 %53 to i64
  %.neg = mul nsw i64 %54, -1000000
  %55 = add i64 %.neg, %1
  br label %56

56:                                               ; preds = %52, %51
  %.0 = phi i64 [ %55, %52 ], [ %1, %51 ]
  %57 = add i64 %.0, -9223372036854775807
  %or.cond5 = icmp ult i64 %57, 2
  br i1 %or.cond5, label %58, label %59

58:                                               ; preds = %56
  tail call void @EncodeSpecialTimestamp(i64 noundef %.0, ptr noundef %.046) #10
  br label %74

59:                                               ; preds = %56
  %. = select i1 %.not51, ptr %14, ptr null
  %60 = select i1 %.not51, ptr %16, ptr null
  %61 = call i32 @timestamp2tm(i64 noundef %.0, ptr noundef %., ptr noundef nonnull %13, ptr noundef nonnull %15, ptr noundef %60, ptr noundef null) #10
  %62 = icmp eq i32 %61, 0
  br i1 %62, label %63, label %70

63:                                               ; preds = %59
  br i1 %.not51, label %66, label %64

64:                                               ; preds = %63
  %65 = getelementptr inbounds nuw i8, ptr %13, i64 32
  store i32 1, ptr %65, align 8
  br label %66

66:                                               ; preds = %64, %63
  %67 = load i32, ptr %15, align 4
  %68 = load i32, ptr %14, align 4
  %69 = load ptr, ptr %16, align 8
  call void @EncodeDateTime(ptr noundef nonnull %13, i32 noundef %67, i1 noundef zeroext true, i32 noundef %68, ptr noundef %69, i32 noundef 4, ptr noundef %.046) #10
  br label %74

70:                                               ; preds = %59
  %71 = call zeroext i1 @errstart_cold(i32 noundef 21, ptr noundef null) #11
  call void @llvm.assume(i1 %71)
  %72 = call i32 @errcode(i32 noundef 134217858) #10
  %73 = call i32 (ptr, ...) @errmsg(ptr noundef nonnull @.str) #10
  call void @errfinish(ptr noundef nonnull @.str.1, i32 noundef 414, ptr noundef nonnull @__func__.JsonEncodeDateTime) #10
  unreachable

74:                                               ; preds = %66, %58
  call void @llvm.lifetime.end.p0(i64 8, ptr nonnull %16) #10
  call void @llvm.lifetime.end.p0(i64 4, ptr nonnull %15) #10
  call void @llvm.lifetime.end.p0(i64 4, ptr nonnull %14) #10
  call void @llvm.lifetime.end.p0(i64 56, ptr nonnull %13) #10
  br label %78

75:                                               ; preds = %19
  %76 = tail call zeroext i1 @errstart_cold(i32 noundef 21, ptr noundef null) #11
  tail call void @llvm.assume(i1 %76)
  %77 = tail call i32 (ptr, ...) @errmsg_internal(ptr noundef nonnull @.str.2, i32 noundef %2) #10
  tail call void @errfinish(ptr noundef nonnull @.str.1, i32 noundef 418, ptr noundef nonnull @__func__.JsonEncodeDateTime) #10
  unreachable

78:                                               ; preds = %74, %50, %33, %30, %29
  ret ptr %.046
}